target datalayout = "e-m:e-p270:32:32-p271:32:32-p272:64:64-i64:64-i128:128-f80:128-n8:16:32:64-S128"
target triple = "x86_64-pc-linux-gnu"

%class.Thread = type { %class.ThreadShadow.base, i64, [43 x i64], ptr, ptr, i32, ptr, i64, i64, %class.ThreadLocalAllocBuffer, i64, %class.ThreadHeapSampler, %class.ThreadStatisticalInfo, %class.JfrThreadLocal, ptr, ptr, ptr, ptr, ptr, ptr, i64, i32, i32, ptr, i32, i32, i32, i32, i8, ptr }
%class.ThreadShadow.base = type <{ ptr, ptr, ptr, i32 }>
%class.ThreadLocalAllocBuffer = type <{ ptr, ptr, ptr, ptr, ptr, i64, i64, i64, i64, i32, i32, i32, i32, i64, %class.AdaptiveWeightedAverage, [4 x i8] }>
%class.AdaptiveWeightedAverage = type { float, i32, i32, i8, float }
%class.ThreadHeapSampler = type { i64 }
%class.ThreadStatisticalInfo = type { i64, i64 }
%class.JfrThreadLocal = type <{ ptr, ptr, ptr, ptr, ptr, ptr, ptr, ptr, ptr, ptr, %class.RefCountHandle, i64, i64, i64, i64, i64, i64, i64, i64, i64, i64, i64, i32, i32, i32, i16, i8, i8, i8, i8, i8, [5 x i8] }>
%class.RefCountHandle = type { ptr }
%class.JfrThreadSampler = type <{ %class.NonJavaThread, %class.Semaphore, ptr, ptr, ptr, ptr, i64, i64, i64, i32, i32, i8, [7 x i8] }>
%class.NonJavaThread = type { %class.Thread, ptr }
%class.Semaphore = type { %class.PosixSemaphore }
%class.PosixSemaphore = type { %union.sem_t }
%union.sem_t = type { i64, [24 x i8] }
%class.JfrBuffer = type { ptr, ptr, ptr, ptr, i64, i16, i8, i8, i32 }
%"struct.Atomic::PlatformLoad.11" = type { i8 }
%"struct.Atomic::LoadImpl.12" = type { i8 }
%"struct.Atomic::PlatformOrderedLoad" = type { i8 }
%class.ScopedFence = type { ptr }
%"struct.Atomic::LoadImpl.13" = type { i8 }

; Function Attrs: mustprogress nounwind uwtable
define internal void @_ZL16compiler_barrierv() #1 {
  call void asm sideeffect "", "~{memory},~{dirflag},~{fpsr},~{flags}"() #7, !srcloc !15
  ret void
}

; Function Attrs: mustprogress nounwind uwtable
define linkonce_odr hidden void @_ZN11OrderAccess7acquireEv() #1 comdat align 2 {
  call void @_ZL16compiler_barrierv()
  ret void
}

; Function Attrs: mustprogress nounwind uwtable
define linkonce_odr hidden void @_ZN18ScopedFenceGeneralIL15ScopedFenceType0EE7postfixEv(ptr noundef nonnull align 1 dereferenceable(1) %0) #1 comdat align 2 {
  %2 = alloca ptr, align 8
  store ptr %0, ptr %2, align 8
  call void @_ZN11OrderAccess7acquireEv()
  ret void
}

; Function Attrs: mustprogress nounwind uwtable
define linkonce_odr hidden noundef ptr @_ZNK6Atomic12PlatformLoadILm8EEclIPhEET_PVKS4_(ptr noundef nonnull align 1 dereferenceable(1) %0, ptr noundef %1) #1 comdat align 2 {
  %3 = alloca ptr, align 8
  %4 = alloca ptr, align 8
  store ptr %0, ptr %3, align 8
  store ptr %1, ptr %4, align 8
  %5 = load ptr, ptr %4, align 8
  %6 = load volatile ptr, ptr %5, align 8
  ret ptr %6
}

; Function Attrs: mustprogress nounwind uwtable
define linkonce_odr hidden void @_ZN18ScopedFenceGeneralIL15ScopedFenceType0EE6prefixEv(ptr noundef nonnull align 1 dereferenceable(1) %0) #1 comdat align 2 {
  %2 = alloca ptr, align 8
  store ptr %0, ptr %2, align 8
  ret void
}

; Function Attrs: mustprogress nounwind uwtable
define linkonce_odr hidden void @_ZN11ScopedFenceIL15ScopedFenceType0EE7postfixEv(ptr noundef nonnull align 8 dereferenceable(8) %0) #1 comdat align 2 {
  %2 = alloca ptr, align 8
  store ptr %0, ptr %2, align 8
  %3 = load ptr, ptr %2, align 8
  call void @_ZN18ScopedFenceGeneralIL15ScopedFenceType0EE7postfixEv(ptr noundef nonnull align 1 dereferenceable(1) %3)
  ret void
}

; Function Attrs: mustprogress nounwind uwtable
define linkonce_odr hidden noundef ptr @_ZNK6Atomic8LoadImplIPhNS_12PlatformLoadILm8EEEvEclEPVKS1_(ptr noundef nonnull align 1 dereferenceable(1) %0, ptr noundef %1) #1 comdat align 2 {
  %3 = alloca ptr, align 8
  %4 = alloca ptr, align 8
  %5 = alloca %"struct.Atomic::PlatformLoad.11", align 1
  store ptr %0, ptr %3, align 8
  store ptr %1, ptr %4, align 8
  %6 = load ptr, ptr %4, align 8
  %7 = call noundef ptr @_ZNK6Atomic12PlatformLoadILm8EEclIPhEET_PVKS4_(ptr noundef nonnull align 1 dereferenceable(1) %5, ptr noundef %6)
  ret ptr %7
}

; Function Attrs: mustprogress nounwind uwtable
define linkonce_odr hidden void @_ZN11ScopedFenceIL15ScopedFenceType0EE6prefixEv(ptr noundef nonnull align 8 dereferenceable(8) %0) #1 comdat align 2 {
  %2 = alloca ptr, align 8
  store ptr %0, ptr %2, align 8
  %3 = load ptr, ptr %2, align 8
  call void @_ZN18ScopedFenceGeneralIL15ScopedFenceType0EE6prefixEv(ptr noundef nonnull align 1 dereferenceable(1) %3)
  ret void
}

; Function Attrs: mustprogress nounwind uwtable
define linkonce_odr hidden void @_ZN11ScopedFenceIL15ScopedFenceType0EED2Ev(ptr noundef nonnull align 8 dereferenceable(8) %0) unnamed_addr #1 comdat align 2 {
  %2 = alloca ptr, align 8
  store ptr %0, ptr %2, align 8
  %3 = load ptr, ptr %2, align 8
  call void @_ZN11ScopedFenceIL15ScopedFenceType0EE7postfixEv(ptr noundef nonnull align 8 dereferenceable(8) %3)
  ret void
}

; Function Attrs: mustprogress nounwind uwtable
define linkonce_odr hidden noundef ptr @_ZN6Atomic4loadIPhEET_PVKS2_(ptr noundef %0) #1 comdat align 2 {
  %2 = alloca ptr, align 8
  %3 = alloca %"struct.Atomic::LoadImpl.13", align 1
  store ptr %0, ptr %2, align 8
  %4 = load ptr, ptr %2, align 8
  %5 = call noundef ptr @_ZNK6Atomic8LoadImplIPhNS_12PlatformLoadILm8EEEvEclEPVKS1_(ptr noundef nonnull align 1 dereferenceable(1) %3, ptr noundef %4)
  ret ptr %5
}

; Function Attrs: mustprogress nounwind uwtable
define linkonce_odr hidden void @_ZN11ScopedFenceIL15ScopedFenceType0EEC2EPv(ptr noundef nonnull align 8 dereferenceable(8) %0, ptr noundef %1) unnamed_addr #1 comdat align 2 {
  %3 = alloca ptr, align 8
  %4 = alloca ptr, align 8
  store ptr %0, ptr %3, align 8
  store ptr %1, ptr %4, align 8
  %5 = load ptr, ptr %3, align 8
  %6 = getelementptr inbounds %class.ScopedFence, ptr %5, i32 0, i32 0
  %7 = load ptr, ptr %4, align 8
  store ptr %7, ptr %6, align 8
  call void @_ZN11ScopedFenceIL15ScopedFenceType0EE6prefixEv(ptr noundef nonnull align 8 dereferenceable(8) %5)
  ret void
}

; Function Attrs: mustprogress nounwind uwtable
define linkonce_odr hidden noundef ptr @_ZNK6Atomic19PlatformOrderedLoadILm8EL15ScopedFenceType0EEclIPhEET_PVKS5_(ptr noundef nonnull align 1 dereferenceable(1) %0, ptr noundef %1) #1 comdat align 2 {
  %3 = alloca ptr, align 8
  %4 = alloca ptr, align 8
  %5 = alloca %class.ScopedFence, align 8
  store ptr %0, ptr %3, align 8
  store ptr %1, ptr %4, align 8
  %6 = load ptr, ptr %4, align 8
  call void @_ZN11ScopedFenceIL15ScopedFenceType0EEC2EPv(ptr noundef nonnull align 8 dereferenceable(8) %5, ptr noundef %6)
  %7 = load ptr, ptr %4, align 8
  %8 = call noundef ptr @_ZN6Atomic4loadIPhEET_PVKS2_(ptr noundef %7)
  call void @_ZN11ScopedFenceIL15ScopedFenceType0EED2Ev(ptr noundef nonnull align 8 dereferenceable(8) %5) #7
  ret ptr %8
}

; Function Attrs: mustprogress nounwind uwtable
define linkonce_odr hidden noundef ptr @_ZNK6Atomic8LoadImplIPhNS_19PlatformOrderedLoadILm8EL15ScopedFenceType0EEEvEclEPVKS1_(ptr noundef nonnull align 1 dereferenceable(1) %0, ptr noundef %1) #1 comdat align 2 {
  %3 = alloca ptr, align 8
  %4 = alloca ptr, align 8
  %5 = alloca %"struct.Atomic::PlatformOrderedLoad", align 1
  store ptr %0, ptr %3, align 8
  store ptr %1, ptr %4, align 8
  %6 = load ptr, ptr %4, align 8
  %7 = call noundef ptr @_ZNK6Atomic19PlatformOrderedLoadILm8EL15ScopedFenceType0EEclIPhEET_PVKS5_(ptr noundef nonnull align 1 dereferenceable(1) %5, ptr noundef %6)
  ret ptr %7
}

; Function Attrs: mustprogress nounwind uwtable
define linkonce_odr hidden noundef i64 @_ZNK9JfrBuffer4sizeEv(ptr noundef nonnull align 8 dereferenceable(48) %0) #1 comdat align 2 {
  %2 = alloca ptr, align 8
  store ptr %0, ptr %2, align 8
  %3 = load ptr, ptr %2, align 8
  %4 = getelementptr inbounds %class.JfrBuffer, ptr %3, i32 0, i32 4
  %5 = load i64, ptr %4, align 8
  ret i64 %5
}

; Function Attrs: mustprogress nounwind uwtable
define linkonce_odr hidden noundef ptr @_ZNK9JfrBuffer5startEv(ptr noundef nonnull align 8 dereferenceable(48) %0) #1 comdat align 2 {
  %2 = alloca ptr, align 8
  store ptr %0, ptr %2, align 8
  %3 = load ptr, ptr %2, align 8
  %4 = getelementptr inbounds %class.JfrBuffer, ptr %3, i32 0, i32 5
  %5 = load i16, ptr %4, align 8
  %6 = zext i16 %5 to i32
  %7 = sext i32 %6 to i64
  %8 = getelementptr inbounds i8, ptr %3, i64 %7
  ret ptr %8
}

; Function Attrs: mustprogress nounwind uwtable
define linkonce_odr hidden noundef ptr @_ZN6Atomic12load_acquireIPhEET_PVKS2_(ptr noundef %0) #1 comdat align 2 {
  %2 = alloca ptr, align 8
  %3 = alloca %"struct.Atomic::LoadImpl.12", align 1
  store ptr %0, ptr %2, align 8
  %4 = load ptr, ptr %2, align 8
  %5 = call noundef ptr @_ZNK6Atomic8LoadImplIPhNS_19PlatformOrderedLoadILm8EL15ScopedFenceType0EEEvEclEPVKS1_(ptr noundef nonnull align 1 dereferenceable(1) %3, ptr noundef %4)
  ret ptr %5
}

; Function Attrs: mustprogress nounwind uwtable
define linkonce_odr hidden noundef ptr @_ZNK9JfrBuffer3endEv(ptr noundef nonnull align 8 dereferenceable(48) %0) #1 comdat align 2 {
  %2 = alloca ptr, align 8
  store ptr %0, ptr %2, align 8
  %3 = load ptr, ptr %2, align 8
  %4 = call noundef ptr @_ZNK9JfrBuffer5startEv(ptr noundef nonnull align 8 dereferenceable(48) %3)
  %5 = call noundef i64 @_ZNK9JfrBuffer4sizeEv(ptr noundef nonnull align 8 dereferenceable(48) %3)
  %6 = getelementptr inbounds i8, ptr %4, i64 %5
  ret ptr %6
}

; Function Attrs: mustprogress nounwind uwtable
define linkonce_odr hidden noundef i64 @_ZNK9JfrBuffer9free_sizeEv(ptr noundef nonnull align 8 dereferenceable(48) %0) #1 comdat align 2 {
  %2 = alloca ptr, align 8
  store ptr %0, ptr %2, align 8
  %3 = load ptr, ptr %2, align 8
  %4 = call noundef ptr @_ZNK9JfrBuffer3endEv(ptr noundef nonnull align 8 dereferenceable(48) %3)
  %5 = getelementptr inbounds %class.JfrBuffer, ptr %3, i32 0, i32 2
  %6 = call noundef ptr @_ZN6Atomic12load_acquireIPhEET_PVKS2_(ptr noundef %5)
  %7 = ptrtoint ptr %4 to i64
  %8 = ptrtoint ptr %6 to i64
  %9 = sub i64 %7, %8
  ret i64 %9
}

; Function Attrs: mustprogress nounwind uwtable
define hidden noundef ptr @_ZN16JfrThreadSampler13renew_if_fullEPK9JfrBuffer(ptr noundef nonnull align 8 dereferenceable(993) %0, ptr noundef %1) #1 align 2 {
  %3 = alloca ptr, align 8
  %4 = alloca ptr, align 8
  store ptr %0, ptr %3, align 8
  store ptr %1, ptr %4, align 8
  %5 = load ptr, ptr %3, align 8
  %6 = load ptr, ptr %4, align 8
  %7 = call noundef i64 @_ZNK9JfrBuffer9free_sizeEv(ptr noundef nonnull align 8 dereferenceable(48) %6)
  %8 = getelementptr inbounds %class.JfrThreadSampler, ptr %5, i32 0, i32 8
  %9 = load i64, ptr %8, align 8
  %10 = icmp ult i64 %7, %9
  br i1 %10, label %11, label %13

11:                                               ; preds = %2
  %12 = call noundef ptr @_ZN21JfrTraceIdLoadBarrier28renew_sampler_enqueue_bufferEP6Thread(ptr noundef %5)
  br label %15

13:                                               ; preds = %2
  %14 = load ptr, ptr %4, align 8
  br label %15

15:                                               ; preds = %13, %11
  %16 = phi ptr [ %12, %11 ], [ %14, %13 ]
  ret ptr %16
}