; Function Attrs: mustprogress nounwind uwtable
define hidden noundef ptr @_ZN16JfrThreadSampler13renew_if_fullEPK9JfrBuffer(ptr noundef nonnull align 8 dereferenceable(993) %0, ptr noundef %1) local_unnamed_addr #0 align 2 {
  %3 = getelementptr inbounds i8, ptr %1, i64 40
  %4 = load i16, ptr %3, align 8
  %5 = zext i16 %4 to i64
  %6 = getelementptr inbounds i8, ptr %1, i64 %5
  %7 = getelementptr inbounds i8, ptr %1, i64 32
  %8 = load i64, ptr %7, align 8
  %9 = getelementptr inbounds i8, ptr %6, i64 %8
  %10 = getelementptr inbounds i8, ptr %1, i64 16
  %11 = load volatile ptr, ptr %10, align 8
  tail call void asm sideeffect "", "~{memory},~{dirflag},~{fpsr},~{flags}"() #18, !srcloc !19
  %12 = ptrtoint ptr %9 to i64
  %13 = ptrtoint ptr %11 to i64
  %14 = sub i64 %12, %13
  %15 = getelementptr inbounds i8, ptr %0, i64 976
  %16 = load i64, ptr %15, align 8
  %17 = icmp ult i64 %14, %16
  br i1 %17, label %18, label %20

18:                                               ; preds = %2
  %19 = tail call noundef ptr @_ZN21JfrTraceIdLoadBarrier28renew_sampler_enqueue_bufferEP6Thread(ptr noundef nonnull %0) #18
  br label %20

20:                                               ; preds = %2, %18
  %21 = phi ptr [ %19, %18 ], [ %1, %2 ]
  ret ptr %21
}